target datalayout = "e-m:e-p270:32:32-p271:32:32-p272:64:64-i64:64-i128:128-f80:128-n8:16:32:64-S128"
target triple = "x86_64-pc-linux-gnu"

%"class.OpenImageIO::v3_1_0::basic_string_view" = type { ptr, i64 }
%"class.std::__cxx11::basic_string" = type { %"struct.std::__cxx11::basic_string<char>::_Alloc_hider", i64, %union.anon.0 }
%"struct.std::__cxx11::basic_string<char>::_Alloc_hider" = type { ptr }
%union.anon.0 = type { i64, [8 x i8] }
%"class.std::_Function_base" = type { %"union.std::_Any_data", ptr }
%"union.std::_Any_data" = type { %"union.std::_Nocopy_types" }
%"union.std::_Nocopy_types" = type { { i64, i64 } }
%"class.OpenImageIO::v3_1_0::ArgParse" = type { %"class.std::shared_ptr" }
%"class.std::shared_ptr" = type { %"class.std::__shared_ptr" }
%"class.std::__shared_ptr" = type { ptr, %"class.std::__shared_count" }
%"class.std::__shared_count" = type { ptr }
%"class.OpenImageIO::v3_1_0::ArgParse::Impl" = type { ptr, i32, ptr, %"class.std::__cxx11::basic_string", ptr, ptr, %"class.std::__cxx11::basic_string", %"class.std::__cxx11::basic_string", %"class.std::__cxx11::basic_string", %"class.std::__cxx11::basic_string", %"class.std::__cxx11::basic_string", i8, i8, i8, i8, i8, i32, i32, %"class.std::vector.20", %"class.std::function.25", %"class.std::function.25", %"class.OpenImageIO::v3_1_0::ParamValueList", %"class.std::__cxx11::basic_string" }
%"class.std::vector.20" = type { %"struct.std::_Vector_base.21" }
%"struct.std::_Vector_base.21" = type { %"struct.std::_Vector_base<std::unique_ptr<OpenImageIO::v3_1_0::ArgOption>, std::allocator<std::unique_ptr<OpenImageIO::v3_1_0::ArgOption>>>::_Vector_impl" }
%"struct.std::_Vector_base<std::unique_ptr<OpenImageIO::v3_1_0::ArgOption>, std::allocator<std::unique_ptr<OpenImageIO::v3_1_0::ArgOption>>>::_Vector_impl" = type { %"struct.std::_Vector_base<std::unique_ptr<OpenImageIO::v3_1_0::ArgOption>, std::allocator<std::unique_ptr<OpenImageIO::v3_1_0::ArgOption>>>::_Vector_impl_data" }
%"struct.std::_Vector_base<std::unique_ptr<OpenImageIO::v3_1_0::ArgOption>, std::allocator<std::unique_ptr<OpenImageIO::v3_1_0::ArgOption>>>::_Vector_impl_data" = type { ptr, ptr, ptr }
%"class.std::function.25" = type { %"class.std::_Function_base", ptr }
%"class.OpenImageIO::v3_1_0::ParamValueList" = type { %"class.std::vector.28" }
%"class.std::vector.28" = type { %"struct.std::_Vector_base.29" }
%"struct.std::_Vector_base.29" = type { %"struct.std::_Vector_base<OpenImageIO::v3_1_0::ParamValue, std::allocator<OpenImageIO::v3_1_0::ParamValue>>::_Vector_impl" }
%"struct.std::_Vector_base<OpenImageIO::v3_1_0::ParamValue, std::allocator<OpenImageIO::v3_1_0::ParamValue>>::_Vector_impl" = type { %"struct.std::_Vector_base<OpenImageIO::v3_1_0::ParamValue, std::allocator<OpenImageIO::v3_1_0::ParamValue>>::_Vector_impl_data" }
%"struct.std::_Vector_base<OpenImageIO::v3_1_0::ParamValue, std::allocator<OpenImageIO::v3_1_0::ParamValue>>::_Vector_impl_data" = type { ptr, ptr, ptr }
%"class.std::basic_string_view" = type { i64, ptr }

; Function Attrs: mustprogress nounwind uwtable
define available_externally noundef i64 @_ZNKSt7__cxx1112basic_stringIcSt11char_traitsIcESaIcEE4sizeEv(ptr noundef nonnull align 8 dereferenceable(32) %0) #7 align 2 {
  %2 = alloca ptr, align 8
  store ptr %0, ptr %2, align 8, !tbaa !50
  %3 = load ptr, ptr %2, align 8
  %4 = getelementptr inbounds nuw %"class.std::__cxx11::basic_string", ptr %3, i32 0, i32 1
  %5 = load i64, ptr %4, align 8, !tbaa !157
  ret i64 %5
}

; Function Attrs: mustprogress nounwind uwtable
define linkonce_odr void @_ZNSt17basic_string_viewIcSt11char_traitsIcEEC2EPKcm(ptr noundef nonnull align 8 dereferenceable(16) %0, ptr noundef %1, i64 noundef %2) unnamed_addr #7 comdat align 2 {
  %4 = alloca ptr, align 8
  %5 = alloca ptr, align 8
  %6 = alloca i64, align 8
  store ptr %0, ptr %4, align 8, !tbaa !250
  store ptr %1, ptr %5, align 8, !tbaa !12
  store i64 %2, ptr %6, align 8, !tbaa !52
  %7 = load ptr, ptr %4, align 8
  %8 = getelementptr inbounds nuw %"class.std::basic_string_view", ptr %7, i32 0, i32 0
  %9 = load i64, ptr %6, align 8, !tbaa !52
  store i64 %9, ptr %8, align 8, !tbaa !252
  %10 = getelementptr inbounds nuw %"class.std::basic_string_view", ptr %7, i32 0, i32 1
  %11 = load ptr, ptr %5, align 8, !tbaa !12
  store ptr %11, ptr %10, align 8, !tbaa !254
  ret void
}

; Function Attrs: mustprogress nounwind uwtable
define linkonce_odr hidden noundef i64 @_ZNK11OpenImageIO6v3_1_017basic_string_viewIcSt11char_traitsIcEE4sizeEv(ptr noundef nonnull align 8 dereferenceable(16) %0) #7 comdat align 2 {
  %2 = alloca ptr, align 8
  store ptr %0, ptr %2, align 8, !tbaa !65
  %3 = load ptr, ptr %2, align 8
  %4 = getelementptr inbounds nuw %"class.OpenImageIO::v3_1_0::basic_string_view", ptr %3, i32 0, i32 1
  %5 = load i64, ptr %4, align 8, !tbaa !69
  ret i64 %5
}

; Function Attrs: mustprogress nounwind uwtable
define linkonce_odr hidden noundef ptr @_ZNK11OpenImageIO6v3_1_017basic_string_viewIcSt11char_traitsIcEE4dataEv(ptr noundef nonnull align 8 dereferenceable(16) %0) #7 comdat align 2 {
  %2 = alloca ptr, align 8
  store ptr %0, ptr %2, align 8, !tbaa !65
  %3 = load ptr, ptr %2, align 8
  %4 = getelementptr inbounds nuw %"class.OpenImageIO::v3_1_0::basic_string_view", ptr %3, i32 0, i32 0
  %5 = load ptr, ptr %4, align 8, !tbaa !67
  ret ptr %5
}

; Function Attrs: mustprogress uwtable
define available_externally noundef nonnull align 8 dereferenceable(32) ptr @_ZNSt7__cxx1112basic_stringIcSt11char_traitsIcESaIcEE6assignEPKcm(ptr noundef nonnull align 8 dereferenceable(32) %0, ptr noundef %1, i64 noundef %2) #6 align 2 {
  %4 = alloca ptr, align 8
  %5 = alloca ptr, align 8
  %6 = alloca i64, align 8
  store ptr %0, ptr %4, align 8, !tbaa !50
  store ptr %1, ptr %5, align 8, !tbaa !12
  store i64 %2, ptr %6, align 8, !tbaa !52
  %7 = load ptr, ptr %4, align 8
  %8 = call noundef i64 @_ZNKSt7__cxx1112basic_stringIcSt11char_traitsIcESaIcEE4sizeEv(ptr noundef nonnull align 8 dereferenceable(32) %7) #3
  %9 = load ptr, ptr %5, align 8, !tbaa !12
  %10 = load i64, ptr %6, align 8, !tbaa !52
  %11 = call noundef nonnull align 8 dereferenceable(32) ptr @_ZNSt7__cxx1112basic_stringIcSt11char_traitsIcESaIcEE10_M_replaceEmmPKcm(ptr noundef nonnull align 8 dereferenceable(32) %7, i64 noundef 0, i64 noundef %8, ptr noundef %9, i64 noundef %10)
  ret ptr %11
}

; Function Attrs: mustprogress nounwind uwtable
define linkonce_odr noundef i64 @_ZNKSt17basic_string_viewIcSt11char_traitsIcEE4sizeEv(ptr noundef nonnull align 8 dereferenceable(16) %0) #7 comdat align 2 {
  %2 = alloca ptr, align 8
  store ptr %0, ptr %2, align 8, !tbaa !250
  %3 = load ptr, ptr %2, align 8
  %4 = getelementptr inbounds nuw %"class.std::basic_string_view", ptr %3, i32 0, i32 0
  %5 = load i64, ptr %4, align 8, !tbaa !252
  ret i64 %5
}

; Function Attrs: mustprogress nounwind uwtable
define linkonce_odr noundef ptr @_ZNKSt17basic_string_viewIcSt11char_traitsIcEE4dataEv(ptr noundef nonnull align 8 dereferenceable(16) %0) #7 comdat align 2 {
  %2 = alloca ptr, align 8
  store ptr %0, ptr %2, align 8, !tbaa !250
  %3 = load ptr, ptr %2, align 8
  %4 = getelementptr inbounds nuw %"class.std::basic_string_view", ptr %3, i32 0, i32 1
  %5 = load ptr, ptr %4, align 8, !tbaa !254
  ret ptr %5
}

; Function Attrs: mustprogress nounwind uwtable
define linkonce_odr hidden { i64, ptr } @_ZNK11OpenImageIO6v3_1_017basic_string_viewIcSt11char_traitsIcEEcvSt17basic_string_viewIcS3_EEv(ptr noundef nonnull align 8 dereferenceable(16) %0) #7 comdat align 2 {
  %2 = alloca %"class.std::basic_string_view", align 8
  %3 = alloca ptr, align 8
  store ptr %0, ptr %3, align 8, !tbaa !65
  %4 = load ptr, ptr %3, align 8
  %5 = call noundef ptr @_ZNK11OpenImageIO6v3_1_017basic_string_viewIcSt11char_traitsIcEE4dataEv(ptr noundef nonnull align 8 dereferenceable(16) %4) #3
  %6 = call noundef i64 @_ZNK11OpenImageIO6v3_1_017basic_string_viewIcSt11char_traitsIcEE4sizeEv(ptr noundef nonnull align 8 dereferenceable(16) %4) #3
  call void @_ZNSt17basic_string_viewIcSt11char_traitsIcEEC2EPKcm(ptr noundef nonnull align 8 dereferenceable(16) %2, ptr noundef %5, i64 noundef %6) #3
  %7 = load { i64, ptr }, ptr %2, align 8
  ret { i64, ptr } %7
}

; Function Attrs: mustprogress nounwind uwtable
define linkonce_odr noundef ptr @_ZNKSt12__shared_ptrIN11OpenImageIO6v3_1_08ArgParse4ImplELN9__gnu_cxx12_Lock_policyE2EE3getEv(ptr noundef nonnull align 8 dereferenceable(16) %0) #7 comdat align 2 {
  %2 = alloca ptr, align 8
  store ptr %0, ptr %2, align 8, !tbaa !142
  %3 = load ptr, ptr %2, align 8
  %4 = getelementptr inbounds nuw %"class.std::__shared_ptr", ptr %3, i32 0, i32 0
  %5 = load ptr, ptr %4, align 8, !tbaa !457
  ret ptr %5
}

; Function Attrs: mustprogress uwtable
define linkonce_odr hidden noundef nonnull align 8 dereferenceable(32) ptr @_ZNSt7__cxx1112basic_stringIcSt11char_traitsIcESaIcEE6assignIN11OpenImageIO6v3_1_017basic_string_viewIcS2_EEEENSt9enable_ifIXsr6__and_ISt14is_convertibleIRKT_St17basic_string_viewIcS2_EESt6__not_ISB_IPSD_PKS4_EESI_ISB_ISE_PKcEEEE5valueERS4_E4typeESE_(ptr noundef nonnull align 8 dereferenceable(32) %0, ptr noundef nonnull align 8 dereferenceable(16) %1) #6 comdat align 2 {
  %3 = alloca ptr, align 8
  %4 = alloca ptr, align 8
  %5 = alloca %"class.std::basic_string_view", align 8
  store ptr %0, ptr %3, align 8, !tbaa !50
  store ptr %1, ptr %4, align 8, !tbaa !65
  %6 = load ptr, ptr %3, align 8
  call void @llvm.lifetime.start.p0(i64 16, ptr %5) #3
  %7 = load ptr, ptr %4, align 8, !tbaa !65
  %8 = call { i64, ptr } @_ZNK11OpenImageIO6v3_1_017basic_string_viewIcSt11char_traitsIcEEcvSt17basic_string_viewIcS3_EEv(ptr noundef nonnull align 8 dereferenceable(16) %7)
  %9 = getelementptr inbounds nuw { i64, ptr }, ptr %5, i32 0, i32 0
  %10 = extractvalue { i64, ptr } %8, 0
  store i64 %10, ptr %9, align 8
  %11 = getelementptr inbounds nuw { i64, ptr }, ptr %5, i32 0, i32 1
  %12 = extractvalue { i64, ptr } %8, 1
  store ptr %12, ptr %11, align 8
  %13 = call noundef ptr @_ZNKSt17basic_string_viewIcSt11char_traitsIcEE4dataEv(ptr noundef nonnull align 8 dereferenceable(16) %5) #3
  %14 = call noundef i64 @_ZNKSt17basic_string_viewIcSt11char_traitsIcEE4sizeEv(ptr noundef nonnull align 8 dereferenceable(16) %5) #3
  %15 = call noundef nonnull align 8 dereferenceable(32) ptr @_ZNSt7__cxx1112basic_stringIcSt11char_traitsIcESaIcEE6assignEPKcm(ptr noundef nonnull align 8 dereferenceable(32) %6, ptr noundef %13, i64 noundef %14)
  call void @llvm.lifetime.end.p0(i64 16, ptr %5) #3
  ret ptr %15
}

; Function Attrs: mustprogress nounwind uwtable
define linkonce_odr noundef ptr @_ZNKSt19__shared_ptr_accessIN11OpenImageIO6v3_1_08ArgParse4ImplELN9__gnu_cxx12_Lock_policyE2ELb0ELb0EE6_M_getEv(ptr noundef nonnull align 1 dereferenceable(1) %0) #7 comdat align 2 {
  %2 = alloca ptr, align 8
  store ptr %0, ptr %2, align 8, !tbaa !144
  %3 = load ptr, ptr %2, align 8
  %4 = call noundef ptr @_ZNKSt12__shared_ptrIN11OpenImageIO6v3_1_08ArgParse4ImplELN9__gnu_cxx12_Lock_policyE2EE3getEv(ptr noundef nonnull align 8 dereferenceable(16) %3) #3
  ret ptr %4
}

; Function Attrs: mustprogress uwtable
define linkonce_odr hidden noundef nonnull align 8 dereferenceable(32) ptr @_ZNSt7__cxx1112basic_stringIcSt11char_traitsIcESaIcEEaSIN11OpenImageIO6v3_1_017basic_string_viewIcS2_EEEENSt9enable_ifIXsr6__and_ISt14is_convertibleIRKT_St17basic_string_viewIcS2_EESt6__not_ISB_IPSD_PKS4_EESI_ISB_ISE_PKcEEEE5valueERS4_E4typeESE_(ptr noundef nonnull align 8 dereferenceable(32) %0, ptr noundef nonnull align 8 dereferenceable(16) %1) #6 comdat align 2 {
  %3 = alloca ptr, align 8
  %4 = alloca ptr, align 8
  store ptr %0, ptr %3, align 8, !tbaa !50
  store ptr %1, ptr %4, align 8, !tbaa !65
  %5 = load ptr, ptr %3, align 8
  %6 = load ptr, ptr %4, align 8, !tbaa !65
  %7 = call noundef nonnull align 8 dereferenceable(32) ptr @_ZNSt7__cxx1112basic_stringIcSt11char_traitsIcESaIcEE6assignIN11OpenImageIO6v3_1_017basic_string_viewIcS2_EEEENSt9enable_ifIXsr6__and_ISt14is_convertibleIRKT_St17basic_string_viewIcS2_EESt6__not_ISB_IPSD_PKS4_EESI_ISB_ISE_PKcEEEE5valueERS4_E4typeESE_(ptr noundef nonnull align 8 dereferenceable(32) %5, ptr noundef nonnull align 8 dereferenceable(16) %6)
  ret ptr %7
}

; Function Attrs: mustprogress nounwind uwtable
define linkonce_odr noundef ptr @_ZNKSt19__shared_ptr_accessIN11OpenImageIO6v3_1_08ArgParse4ImplELN9__gnu_cxx12_Lock_policyE2ELb0ELb0EEptEv(ptr noundef nonnull align 1 dereferenceable(1) %0) #7 comdat align 2 {
  %2 = alloca ptr, align 8
  store ptr %0, ptr %2, align 8, !tbaa !144
  %3 = load ptr, ptr %2, align 8
  %4 = call noundef ptr @_ZNKSt19__shared_ptr_accessIN11OpenImageIO6v3_1_08ArgParse4ImplELN9__gnu_cxx12_Lock_policyE2ELb0ELb0EE6_M_getEv(ptr noundef nonnull align 1 dereferenceable(1) %3) #3
  ret ptr %4
}

; Function Attrs: mustprogress uwtable
define noundef nonnull align 8 dereferenceable(16) ptr @_ZN11OpenImageIO6v3_1_08ArgParse11descriptionENS0_17basic_string_viewIcSt11char_traitsIcEEE(ptr noundef nonnull align 8 dereferenceable(16) %0, ptr noundef %1) #6 align 2 {
  %3 = alloca ptr, align 8
  %4 = alloca ptr, align 8
  store ptr %0, ptr %3, align 8, !tbaa !10
  store ptr %1, ptr %4, align 8, !tbaa !65
  %5 = load ptr, ptr %3, align 8
  %6 = getelementptr inbounds nuw %"class.OpenImageIO::v3_1_0::ArgParse", ptr %5, i32 0, i32 0
  %7 = call noundef ptr @_ZNKSt19__shared_ptr_accessIN11OpenImageIO6v3_1_08ArgParse4ImplELN9__gnu_cxx12_Lock_policyE2ELb0ELb0EEptEv(ptr noundef nonnull align 1 dereferenceable(1) %6) #3
  %8 = getelementptr inbounds nuw %"class.OpenImageIO::v3_1_0::ArgParse::Impl", ptr %7, i32 0, i32 8
  %9 = call noundef nonnull align 8 dereferenceable(32) ptr @_ZNSt7__cxx1112basic_stringIcSt11char_traitsIcESaIcEEaSIN11OpenImageIO6v3_1_017basic_string_viewIcS2_EEEENSt9enable_ifIXsr6__and_ISt14is_convertibleIRKT_St17basic_string_viewIcS2_EESt6__not_ISB_IPSD_PKS4_EESI_ISB_ISE_PKcEEEE5valueERS4_E4typeESE_(ptr noundef nonnull align 8 dereferenceable(32) %8, ptr noundef nonnull align 8 dereferenceable(16) %1)
  ret ptr %5
}